target datalayout = "e-m:e-p270:32:32-p271:32:32-p272:64:64-i64:64-i128:128-f80:128-n8:16:32:64-S128"
target triple = "x86_64-pc-linux-gnu"

%struct.rb_data_type_struct = type { ptr, %struct.anon.12, ptr, ptr, i64 }
%struct.anon.12 = type { ptr, ptr, ptr, ptr, [1 x ptr] }
%struct.RBasic = type { i64, i64 }
%struct.rb_execarg = type { %union.anon.13, i64, i64, i64, i64, i16, ptr, ptr, i32, i64, i32, i32, i32, i32, i64, i64, i64, i64, i64, i64, i64 }
%union.anon.13 = type { %struct.anon.15 }
%struct.anon.15 = type { i64, i64, i64, i64 }
%struct.RArray = type { %struct.RBasic, %union.anon.30 }
%union.anon.30 = type { %struct.anon.31 }
%struct.anon.31 = type { i64, %union.anon.32, ptr }
%union.anon.32 = type { i64 }

@exec_arg_data_type = internal constant %struct.rb_data_type_struct { ptr @.str.186, %struct.anon.12 { ptr @mark_exec_arg, ptr inttoptr (i64 -1 to ptr), ptr @memsize_exec_arg, ptr null, [1 x ptr] zeroinitializer }, ptr null, ptr null, i64 3 }, align 8
@.str.195 = private unnamed_addr constant [39 x i8] c"../include/ruby/internal/core/rarray.h\00", align 1

; Function Attrs: inlinehint nounwind sspstrong willreturn memory(none) uwtable
define internal zeroext i1 @RB_IMMEDIATE_P(i64 noundef %0) #4 {
  %2 = alloca i64, align 8
  store i64 %0, ptr %2, align 8, !tbaa !35
  %3 = load i64, ptr %2, align 8, !tbaa !35
  %4 = and i64 %3, 7
  %5 = icmp ne i64 %4, 0
  ret i1 %5
}

; Function Attrs: inlinehint nounwind sspstrong willreturn memory(none) uwtable
define internal zeroext i1 @RB_SPECIAL_CONST_P(i64 noundef %0) #4 {
  %2 = alloca i64, align 8
  store i64 %0, ptr %2, align 8, !tbaa !35
  %3 = load i64, ptr %2, align 8, !tbaa !35
  %4 = icmp eq i64 %3, 0
  br i1 %4, label %8, label %5

5:                                                ; preds = %1
  %6 = load i64, ptr %2, align 8, !tbaa !35
  %7 = call zeroext i1 @RB_IMMEDIATE_P(i64 noundef %6) #28
  br label %8

8:                                                ; preds = %5, %1
  %9 = phi i1 [ true, %1 ], [ %7, %5 ]
  ret i1 %9
}

; Function Attrs: inlinehint nounwind sspstrong uwtable
define internal i64 @rb_obj_written(i64 noundef %0, i64 noundef %1, i64 noundef %2, ptr noundef %3, i32 noundef %4) #1 {
  %6 = alloca i64, align 8
  %7 = alloca i64, align 8
  %8 = alloca i64, align 8
  %9 = alloca ptr, align 8
  %10 = alloca i32, align 4
  store i64 %0, ptr %6, align 8, !tbaa !35
  store i64 %1, ptr %7, align 8, !tbaa !35
  store i64 %2, ptr %8, align 8, !tbaa !35
  store ptr %3, ptr %9, align 8, !tbaa !64
  store i32 %4, ptr %10, align 4, !tbaa !34
  %11 = load i64, ptr %8, align 8, !tbaa !35
  %12 = call zeroext i1 @RB_SPECIAL_CONST_P(i64 noundef %11) #28
  br i1 %12, label %16, label %13

13:                                               ; preds = %5
  %14 = load i64, ptr %6, align 8, !tbaa !35
  %15 = load i64, ptr %8, align 8, !tbaa !35
  call void @rb_gc_writebarrier(i64 noundef %14, i64 noundef %15)
  br label %16

16:                                               ; preds = %13, %5
  %17 = load i64, ptr %6, align 8, !tbaa !35
  ret i64 %17
}

; Function Attrs: inlinehint nounwind sspstrong willreturn memory(read) uwtable
define internal i64 @RB_FL_TEST_RAW(i64 noundef %0, i64 noundef %1) #5 {
  %3 = alloca i64, align 8
  %4 = alloca i64, align 8
  store i64 %0, ptr %3, align 8, !tbaa !35
  store i64 %1, ptr %4, align 8, !tbaa !35
  %5 = load i64, ptr %3, align 8, !tbaa !35
  %6 = inttoptr i64 %5 to ptr
  %7 = getelementptr inbounds nuw %struct.RBasic, ptr %6, i32 0, i32 0
  %8 = load i64, ptr %7, align 8, !tbaa !215
  %9 = load i64, ptr %4, align 8, !tbaa !35
  %10 = and i64 %8, %9
  ret i64 %10
}

; Function Attrs: inlinehint nounwind sspstrong uwtable
define internal i64 @rb_obj_write(i64 noundef %0, ptr noundef %1, i64 noundef %2, ptr noundef %3, i32 noundef %4) #1 {
  %6 = alloca i64, align 8
  %7 = alloca ptr, align 8
  %8 = alloca i64, align 8
  %9 = alloca ptr, align 8
  %10 = alloca i32, align 4
  store i64 %0, ptr %6, align 8, !tbaa !35
  store ptr %1, ptr %7, align 8, !tbaa !70
  store i64 %2, ptr %8, align 8, !tbaa !35
  store ptr %3, ptr %9, align 8, !tbaa !64
  store i32 %4, ptr %10, align 4, !tbaa !34
  %11 = load i64, ptr %8, align 8, !tbaa !35
  %12 = load ptr, ptr %7, align 8, !tbaa !70
  store i64 %11, ptr %12, align 8, !tbaa !35
  %13 = load i64, ptr %6, align 8, !tbaa !35
  %14 = load i64, ptr %8, align 8, !tbaa !35
  %15 = load ptr, ptr %9, align 8, !tbaa !64
  %16 = load i32, ptr %10, align 4, !tbaa !34
  %17 = call i64 @rb_obj_written(i64 noundef %13, i64 noundef 36, i64 noundef %14, ptr noundef %15, i32 noundef %16)
  %18 = load i64, ptr %6, align 8, !tbaa !35
  ret i64 %18
}

; Function Attrs: nounwind sspstrong uwtable
define internal void @assert_close_on_exec(i32 noundef %0) #0 {
  %2 = alloca i32, align 4
  store i32 %0, ptr %2, align 4, !tbaa !34
  ret void
}

; Function Attrs: inlinehint nounwind sspstrong willreturn memory(read) uwtable
define internal ptr @rb_array_const_ptr(i64 noundef %0) #5 {
  %2 = alloca ptr, align 8
  %3 = alloca i64, align 8
  store i64 %0, ptr %3, align 8, !tbaa !35
  %4 = load i64, ptr %3, align 8, !tbaa !35
  %5 = call zeroext i1 @RB_FL_ANY_RAW(i64 noundef %4, i64 noundef 8192) #29
  br i1 %5, label %6, label %11

6:                                                ; preds = %1
  %7 = load i64, ptr %3, align 8, !tbaa !35
  %8 = inttoptr i64 %7 to ptr
  %9 = getelementptr inbounds nuw %struct.RArray, ptr %8, i32 0, i32 1
  %10 = getelementptr inbounds [1 x i64], ptr %9, i64 0, i64 0
  store ptr %10, ptr %2, align 8
  br label %17

11:                                               ; preds = %1
  %12 = load i64, ptr %3, align 8, !tbaa !35
  %13 = inttoptr i64 %12 to ptr
  %14 = getelementptr inbounds nuw %struct.RArray, ptr %13, i32 0, i32 1
  %15 = getelementptr inbounds nuw %struct.anon.31, ptr %14, i32 0, i32 2
  %16 = load ptr, ptr %15, align 8, !tbaa !66
  store ptr %16, ptr %2, align 8
  br label %17

17:                                               ; preds = %11, %6
  %18 = load ptr, ptr %2, align 8
  ret ptr %18
}

; Function Attrs: inlinehint nounwind sspstrong willreturn memory(read) uwtable
define internal i64 @RARRAY_EMBED_LEN(i64 noundef %0) #5 {
  %2 = alloca i64, align 8
  %3 = alloca i64, align 8
  store i64 %0, ptr %2, align 8, !tbaa !35
  call void @llvm.lifetime.start.p0(i64 8, ptr %3) #27
  %4 = load i64, ptr %2, align 8, !tbaa !35
  %5 = inttoptr i64 %4 to ptr
  %6 = getelementptr inbounds nuw %struct.RBasic, ptr %5, i32 0, i32 0
  %7 = load i64, ptr %6, align 8, !tbaa !215
  store i64 %7, ptr %3, align 8, !tbaa !35
  %8 = load i64, ptr %3, align 8, !tbaa !35
  %9 = and i64 %8, 4161536
  store i64 %9, ptr %3, align 8, !tbaa !35
  %10 = load i64, ptr %3, align 8, !tbaa !35
  %11 = lshr i64 %10, 15
  store i64 %11, ptr %3, align 8, !tbaa !35
  %12 = load i64, ptr %3, align 8, !tbaa !35
  call void @llvm.lifetime.end.p0(i64 8, ptr %3) #27
  ret i64 %12
}

; Function Attrs: inlinehint nounwind sspstrong willreturn memory(read) uwtable
define internal zeroext i1 @RB_FL_ANY_RAW(i64 noundef %0, i64 noundef %1) #5 {
  %3 = alloca i64, align 8
  %4 = alloca i64, align 8
  store i64 %0, ptr %3, align 8, !tbaa !35
  store i64 %1, ptr %4, align 8, !tbaa !35
  %5 = load i64, ptr %3, align 8, !tbaa !35
  %6 = load i64, ptr %4, align 8, !tbaa !35
  %7 = call i64 @RB_FL_TEST_RAW(i64 noundef %5, i64 noundef %6) #29
  %8 = icmp ne i64 %7, 0
  ret i1 %8
}

; Function Attrs: inlinehint nounwind sspstrong uwtable
define internal void @RARRAY_ASET(i64 noundef %0, i64 noundef %1, i64 noundef %2) #1 {
  %4 = alloca i64, align 8
  %5 = alloca i64, align 8
  %6 = alloca i64, align 8
  %7 = alloca i64, align 8
  %8 = alloca ptr, align 8
  store i64 %0, ptr %4, align 8, !tbaa !35
  store i64 %1, ptr %5, align 8, !tbaa !35
  store i64 %2, ptr %6, align 8, !tbaa !35
  br label %9

9:                                                ; preds = %3
  call void @llvm.lifetime.start.p0(i64 8, ptr %7) #27
  %10 = load i64, ptr %4, align 8, !tbaa !35
  store i64 %10, ptr %7, align 8, !tbaa !35
  call void @llvm.lifetime.start.p0(i64 8, ptr %8) #27
  %11 = load i64, ptr %7, align 8, !tbaa !35
  %12 = call ptr @rb_ary_ptr_use_start(i64 noundef %11)
  store ptr %12, ptr %8, align 8, !tbaa !70
  %13 = load i64, ptr %4, align 8, !tbaa !35
  %14 = load ptr, ptr %8, align 8, !tbaa !70
  %15 = load i64, ptr %5, align 8, !tbaa !35
  %16 = getelementptr i64, ptr %14, i64 %15
  %17 = load i64, ptr %6, align 8, !tbaa !35
  %18 = call i64 @rb_obj_write(i64 noundef %13, ptr noundef %16, i64 noundef %17, ptr noundef @.str.195, i32 noundef 389)
  %19 = load i64, ptr %7, align 8, !tbaa !35
  call void @rb_ary_ptr_use_end(i64 noundef %19)
  call void @llvm.lifetime.end.p0(i64 8, ptr %8) #27
  call void @llvm.lifetime.end.p0(i64 8, ptr %7) #27
  br label %20

20:                                               ; preds = %9
  ret void
}

; Function Attrs: inlinehint nounwind sspstrong uwtable
define internal i32 @close_unless_reserved(i32 noundef %0) #1 {
  %2 = alloca i32, align 4
  %3 = alloca i32, align 4
  store i32 %0, ptr %3, align 4, !tbaa !34
  %4 = load i32, ptr %3, align 4, !tbaa !34
  %5 = call i32 @rb_reserved_fd_p(i32 noundef %4)
  %6 = icmp ne i32 %5, 0
  br i1 %6, label %7, label %9

7:                                                ; preds = %1
  %8 = load i32, ptr %3, align 4, !tbaa !34
  call void @assert_close_on_exec(i32 noundef %8)
  store i32 0, ptr %2, align 4
  br label %12

9:                                                ; preds = %1
  %10 = load i32, ptr %3, align 4, !tbaa !34
  %11 = call i32 @close(i32 noundef %10)
  store i32 %11, ptr %2, align 4
  br label %12

12:                                               ; preds = %9, %7
  %13 = load i32, ptr %2, align 4
  ret i32 %13
}

; Function Attrs: inlinehint nounwind sspstrong uwtable
define internal i32 @RB_FIX2INT(i64 noundef %0) #1 {
  %2 = alloca i64, align 8
  %3 = alloca i64, align 8
  store i64 %0, ptr %2, align 8, !tbaa !35
  call void @llvm.lifetime.start.p0(i64 8, ptr %3) #27
  %4 = load i64, ptr %2, align 8, !tbaa !35
  %5 = call i64 @rb_fix2int(i64 noundef %4)
  store i64 %5, ptr %3, align 8, !tbaa !35
  %6 = load i64, ptr %3, align 8, !tbaa !35
  %7 = trunc i64 %6 to i32
  call void @llvm.lifetime.end.p0(i64 8, ptr %3) #27
  ret i32 %7
}

; Function Attrs: inlinehint nounwind sspstrong willreturn memory(none) uwtable
define internal zeroext i1 @RB_NIL_P(i64 noundef %0) #4 {
  %2 = alloca i64, align 8
  store i64 %0, ptr %2, align 8, !tbaa !35
  %3 = load i64, ptr %2, align 8, !tbaa !35
  %4 = icmp eq i64 %3, 4
  ret i1 %4
}

; Function Attrs: inlinehint nounwind sspstrong willreturn memory(read) uwtable
define internal i64 @RARRAY_AREF(i64 noundef %0, i64 noundef %1) #5 {
  %3 = alloca i64, align 8
  %4 = alloca i64, align 8
  %5 = alloca i64, align 8
  store i64 %0, ptr %3, align 8, !tbaa !35
  store i64 %1, ptr %4, align 8, !tbaa !35
  call void @llvm.lifetime.start.p0(i64 8, ptr %5) #27
  %6 = load i64, ptr %3, align 8, !tbaa !35
  %7 = call ptr @rb_array_const_ptr(i64 noundef %6) #29
  %8 = load i64, ptr %4, align 8, !tbaa !35
  %9 = getelementptr i64, ptr %7, i64 %8
  %10 = load i64, ptr %9, align 8, !tbaa !35
  store i64 %10, ptr %5, align 8, !tbaa !35
  %11 = load i64, ptr %5, align 8, !tbaa !35
  call void @llvm.lifetime.end.p0(i64 8, ptr %5) #27
  ret i64 %11
}

; Function Attrs: inlinehint nounwind sspstrong willreturn memory(read) uwtable
define internal i64 @rb_array_len(i64 noundef %0) #5 {
  %2 = alloca i64, align 8
  %3 = alloca i64, align 8
  store i64 %0, ptr %3, align 8, !tbaa !35
  %4 = load i64, ptr %3, align 8, !tbaa !35
  %5 = call zeroext i1 @RB_FL_ANY_RAW(i64 noundef %4, i64 noundef 8192) #29
  br i1 %5, label %6, label %9

6:                                                ; preds = %1
  %7 = load i64, ptr %3, align 8, !tbaa !35
  %8 = call i64 @RARRAY_EMBED_LEN(i64 noundef %7) #29
  store i64 %8, ptr %2, align 8
  br label %15

9:                                                ; preds = %1
  %10 = load i64, ptr %3, align 8, !tbaa !35
  %11 = inttoptr i64 %10 to ptr
  %12 = getelementptr inbounds nuw %struct.RArray, ptr %11, i32 0, i32 1
  %13 = getelementptr inbounds nuw %struct.anon.31, ptr %12, i32 0, i32 0
  %14 = load i64, ptr %13, align 8, !tbaa !66
  store i64 %14, ptr %2, align 8
  br label %15

15:                                               ; preds = %9, %6
  %16 = load i64, ptr %2, align 8
  ret i64 %16
}

; Function Attrs: nounwind sspstrong uwtable
define dso_local ptr @rb_execarg_get(i64 noundef %0) #0 {
  %2 = alloca i64, align 8
  %3 = alloca ptr, align 8
  store i64 %0, ptr %2, align 8, !tbaa !35
  call void @llvm.lifetime.start.p0(i64 8, ptr %3) #27
  %4 = load i64, ptr %2, align 8, !tbaa !35
  %5 = call ptr @rb_check_typeddata(i64 noundef %4, ptr noundef @exec_arg_data_type)
  store ptr %5, ptr %3, align 8, !tbaa !68
  %6 = load ptr, ptr %3, align 8, !tbaa !68
  call void @llvm.lifetime.end.p0(i64 8, ptr %3) #27
  ret ptr %6
}

; Function Attrs: nounwind sspstrong uwtable
define internal i64 @execarg_parent_end(i64 noundef %0) #0 {
  %2 = alloca i64, align 8
  %3 = alloca ptr, align 8
  %4 = alloca i32, align 4
  %5 = alloca i64, align 8
  %6 = alloca i64, align 8
  %7 = alloca i64, align 8
  %8 = alloca i64, align 8
  %9 = alloca i64, align 8
  %10 = alloca i32, align 4
  %11 = alloca ptr, align 8
  %12 = alloca ptr, align 8
  store i64 %0, ptr %2, align 8, !tbaa !35
  call void @llvm.lifetime.start.p0(i64 8, ptr %3) #27
  %13 = load i64, ptr %2, align 8, !tbaa !35
  %14 = call ptr @rb_execarg_get(i64 noundef %13)
  store ptr %14, ptr %3, align 8, !tbaa !68
  call void @llvm.lifetime.start.p0(i64 4, ptr %4) #27
  %15 = call ptr @rb_errno_ptr()
  %16 = load i32, ptr %15, align 4, !tbaa !34
  store i32 %16, ptr %4, align 4, !tbaa !34
  call void @llvm.lifetime.start.p0(i64 8, ptr %5) #27
  %17 = load ptr, ptr %3, align 8, !tbaa !68
  %18 = getelementptr inbounds nuw %struct.rb_execarg, ptr %17, i32 0, i32 16
  %19 = load i64, ptr %18, align 8, !tbaa !87
  store i64 %19, ptr %5, align 8, !tbaa !35
  %20 = load i64, ptr %5, align 8, !tbaa !35
  %21 = icmp ne i64 %20, 0
  br i1 %21, label %22, label %49

22:                                               ; preds = %1
  call void @llvm.lifetime.start.p0(i64 8, ptr %6) #27
  store i64 0, ptr %6, align 8, !tbaa !35
  br label %23

23:                                               ; preds = %45, %22
  %24 = load i64, ptr %6, align 8, !tbaa !35
  %25 = load i64, ptr %5, align 8, !tbaa !35
  %26 = call i64 @rb_array_len(i64 noundef %25) #29
  %27 = icmp slt i64 %24, %26
  br i1 %27, label %28, label %48

28:                                               ; preds = %23
  call void @llvm.lifetime.start.p0(i64 8, ptr %7) #27
  %29 = load i64, ptr %5, align 8, !tbaa !35
  %30 = load i64, ptr %6, align 8, !tbaa !35
  %31 = call i64 @RARRAY_AREF(i64 noundef %29, i64 noundef %30) #29
  store i64 %31, ptr %7, align 8, !tbaa !35
  call void @llvm.lifetime.start.p0(i64 8, ptr %8) #27
  %32 = load i64, ptr %7, align 8, !tbaa !35
  %33 = call i64 @RARRAY_AREF(i64 noundef %32, i64 noundef 1) #29
  store i64 %33, ptr %8, align 8, !tbaa !35
  call void @llvm.lifetime.start.p0(i64 8, ptr %9) #27
  call void @llvm.lifetime.start.p0(i64 4, ptr %10) #27
  %34 = load i64, ptr %8, align 8, !tbaa !35
  %35 = call i64 @RARRAY_AREF(i64 noundef %34, i64 noundef 3) #29
  store i64 %35, ptr %9, align 8, !tbaa !35
  %36 = load i64, ptr %9, align 8, !tbaa !35
  %37 = call zeroext i1 @RB_NIL_P(i64 noundef %36) #28
  br i1 %37, label %44, label %38

38:                                               ; preds = %28
  %39 = load i64, ptr %9, align 8, !tbaa !35
  %40 = call i32 @RB_FIX2INT(i64 noundef %39)
  store i32 %40, ptr %10, align 4, !tbaa !34
  %41 = load i32, ptr %10, align 4, !tbaa !34
  %42 = call i32 @close_unless_reserved(i32 noundef %41)
  %43 = load i64, ptr %8, align 8, !tbaa !35
  call void @RARRAY_ASET(i64 noundef %43, i64 noundef 3, i64 noundef 4)
  br label %44

44:                                               ; preds = %38, %28
  call void @llvm.lifetime.end.p0(i64 4, ptr %10) #27
  call void @llvm.lifetime.end.p0(i64 8, ptr %9) #27
  call void @llvm.lifetime.end.p0(i64 8, ptr %8) #27
  call void @llvm.lifetime.end.p0(i64 8, ptr %7) #27
  br label %45

45:                                               ; preds = %44
  %46 = load i64, ptr %6, align 8, !tbaa !35
  %47 = add i64 %46, 1
  store i64 %47, ptr %6, align 8, !tbaa !35
  br label %23, !llvm.loop !109

48:                                               ; preds = %23
  call void @llvm.lifetime.end.p0(i64 8, ptr %6) #27
  br label %49

49:                                               ; preds = %48, %1
  %50 = load i32, ptr %4, align 4, !tbaa !34
  %51 = call ptr @rb_errno_ptr()
  store i32 %50, ptr %51, align 4, !tbaa !34
  call void @llvm.lifetime.start.p0(i64 8, ptr %11) #27
  store ptr %2, ptr %11, align 8, !tbaa !70
  call void asm sideeffect "", "*m,~{dirflag},~{fpsr},~{flags}"(ptr elementtype(ptr) %11) #27, !srcloc !110
  %52 = load ptr, ptr %11, align 8, !tbaa !70
  store ptr %52, ptr %12, align 8, !tbaa !70
  call void @llvm.lifetime.end.p0(i64 8, ptr %11) #27
  %53 = load ptr, ptr %12, align 8, !tbaa !70
  %54 = load volatile i64, ptr %53, align 8, !tbaa !35
  %55 = load i64, ptr %2, align 8, !tbaa !35
  call void @llvm.lifetime.end.p0(i64 8, ptr %5) #27
  call void @llvm.lifetime.end.p0(i64 4, ptr %4) #27
  call void @llvm.lifetime.end.p0(i64 8, ptr %3) #27
  ret i64 %55
}