; Function Attrs: nounwind sspstrong uwtable
define internal i64 @execarg_parent_end(i64 noundef %0) #1 {
  %2 = alloca i64, align 8
  %3 = alloca ptr, align 8
  store i64 %0, ptr %2, align 8, !tbaa !43
  %4 = tail call ptr @rb_check_typeddata(i64 noundef %0, ptr noundef nonnull @exec_arg_data_type) #27
  %5 = tail call ptr @rb_errno_ptr() #27
  %6 = load i32, ptr %5, align 4, !tbaa !60
  %7 = getelementptr inbounds nuw i8, ptr %4, i64 136
  %8 = load i64, ptr %7, align 8, !tbaa !92
  %.not = icmp eq i64 %8, 0
  br i1 %.not, label %.loopexit, label %.preheader

.preheader:                                       ; preds = %1
  %9 = inttoptr i64 %8 to ptr
  %10 = getelementptr inbounds nuw i8, ptr %9, i64 16
  %11 = getelementptr inbounds nuw i8, ptr %9, i64 32
  br label %12

12:                                               ; preds = %.preheader, %53
  %.0 = phi i64 [ %54, %53 ], [ 0, %.preheader ]
  %13 = load i64, ptr %9, align 8, !tbaa !69
  %14 = and i64 %13, 8192
  %.not.i = icmp eq i64 %14, 0
  br i1 %.not.i, label %rb_array_len.exit, label %rb_array_len.exit.thread

rb_array_len.exit:                                ; preds = %12
  %15 = load i64, ptr %10, align 8, !tbaa !67
  %16 = icmp slt i64 %.0, %15
  br i1 %16, label %20, label %.loopexit

rb_array_len.exit.thread:                         ; preds = %12
  %17 = lshr i64 %13, 15
  %18 = and i64 %17, 127
  %19 = icmp samesign ult i64 %.0, %18
  br i1 %19, label %RARRAY_AREF.exit, label %.loopexit

20:                                               ; preds = %rb_array_len.exit
  %21 = load ptr, ptr %11, align 8, !tbaa !67
  br label %RARRAY_AREF.exit

RARRAY_AREF.exit:                                 ; preds = %rb_array_len.exit.thread, %20
  %.0.i.i = phi ptr [ %21, %20 ], [ %10, %rb_array_len.exit.thread ]
  %22 = getelementptr i64, ptr %.0.i.i, i64 %.0
  %23 = load i64, ptr %22, align 8, !tbaa !43
  %24 = inttoptr i64 %23 to ptr
  %25 = load i64, ptr %24, align 8, !tbaa !69
  %26 = and i64 %25, 8192
  %.not.i.i15 = icmp eq i64 %26, 0
  br i1 %.not.i.i15, label %29, label %27

27:                                               ; preds = %RARRAY_AREF.exit
  %28 = getelementptr inbounds nuw i8, ptr %24, i64 16
  br label %RARRAY_AREF.exit17

29:                                               ; preds = %RARRAY_AREF.exit
  %30 = getelementptr inbounds nuw i8, ptr %24, i64 32
  %31 = load ptr, ptr %30, align 8, !tbaa !67
  br label %RARRAY_AREF.exit17

RARRAY_AREF.exit17:                               ; preds = %27, %29
  %.0.i.i16 = phi ptr [ %28, %27 ], [ %31, %29 ]
  %32 = getelementptr i8, ptr %.0.i.i16, i64 8
  %33 = load i64, ptr %32, align 8, !tbaa !43
  %34 = inttoptr i64 %33 to ptr
  %35 = load i64, ptr %34, align 8, !tbaa !69
  %36 = and i64 %35, 8192
  %.not.i.i18 = icmp eq i64 %36, 0
  br i1 %.not.i.i18, label %39, label %37

37:                                               ; preds = %RARRAY_AREF.exit17
  %38 = getelementptr inbounds nuw i8, ptr %34, i64 16
  br label %RARRAY_AREF.exit20

39:                                               ; preds = %RARRAY_AREF.exit17
  %40 = getelementptr inbounds nuw i8, ptr %34, i64 32
  %41 = load ptr, ptr %40, align 8, !tbaa !67
  br label %RARRAY_AREF.exit20

RARRAY_AREF.exit20:                               ; preds = %37, %39
  %.0.i.i19 = phi ptr [ %38, %37 ], [ %41, %39 ]
  %42 = getelementptr i8, ptr %.0.i.i19, i64 24
  %43 = load i64, ptr %42, align 8, !tbaa !43
  %44 = icmp eq i64 %43, 4
  br i1 %44, label %53, label %45

45:                                               ; preds = %RARRAY_AREF.exit20
  %46 = tail call i64 @rb_fix2int(i64 noundef %43) #27
  %47 = trunc i64 %46 to i32
  %48 = tail call i32 @rb_reserved_fd_p(i32 noundef %47) #27
  %.not.i21 = icmp eq i32 %48, 0
  br i1 %.not.i21, label %49, label %close_unless_reserved.exit

49:                                               ; preds = %45
  %50 = tail call i32 @close(i32 noundef %47) #27
  br label %close_unless_reserved.exit

close_unless_reserved.exit:                       ; preds = %45, %49
  %51 = tail call ptr @rb_ary_ptr_use_start(i64 noundef %33) #27
  %52 = getelementptr i8, ptr %51, i64 24
  store i64 4, ptr %52, align 8, !tbaa !43
  tail call void @rb_ary_ptr_use_end(i64 noundef %33) #27
  br label %53

53:                                               ; preds = %close_unless_reserved.exit, %RARRAY_AREF.exit20
  %54 = add nuw nsw i64 %.0, 1
  br label %12, !llvm.loop !164

.loopexit:                                        ; preds = %rb_array_len.exit.thread, %rb_array_len.exit, %1
  %55 = tail call ptr @rb_errno_ptr() #27
  store i32 %6, ptr %55, align 4, !tbaa !60
  call void @llvm.lifetime.start.p0(i64 8, ptr nonnull %3) #27
  store ptr %2, ptr %3, align 8, !tbaa !75
  call void asm sideeffect "", "*m,~{dirflag},~{fpsr},~{flags}"(ptr nonnull elementtype(ptr) %3) #27, !srcloc !165
  %56 = load ptr, ptr %3, align 8, !tbaa !75
  call void @llvm.lifetime.end.p0(i64 8, ptr nonnull %3) #27
  %57 = load volatile i64, ptr %56, align 8, !tbaa !43
  %58 = load i64, ptr %2, align 8, !tbaa !43
  ret i64 %58
}